target datalayout = "e-m:e-p270:32:32-p271:32:32-p272:64:64-i64:64-i128:128-f80:128-n8:16:32:64-S128"
target triple = "x86_64-unknown-linux-gnu"

%"class.icu_75::StandardPluralRanges" = type { %"class.icu_75::MaybeStackArray.0", i32, [4 x i8] }
%"class.icu_75::MaybeStackArray.0" = type <{ ptr, i32, i8, [3 x i8], [3 x %"struct.icu_75::StandardPluralRanges::StandardPluralRangeTriple"], [4 x i8] }>
%"struct.icu_75::StandardPluralRanges::StandardPluralRangeTriple" = type { i32, i32, i32 }
%"class.icu_75::LocalPointer" = type { %"class.icu_75::LocalPointerBase" }
%"class.icu_75::LocalPointerBase" = type { ptr }

; Function Attrs: mustprogress nounwind uwtable
define linkonce_odr void @_ZN6icu_7515MaybeStackArrayINS_20StandardPluralRanges25StandardPluralRangeTripleELi3EE17resetToStackArrayEv(ptr noundef nonnull align 8 dereferenceable(52) %this) #0 comdat align 2 {
entry:
  %this.addr = alloca ptr, align 8
  store ptr %this, ptr %this.addr, align 8
  %this1 = load ptr, ptr %this.addr, align 8
  %stackArray = getelementptr inbounds %"class.icu_75::MaybeStackArray.0", ptr %this1, i32 0, i32 4
  %arraydecay = getelementptr inbounds [3 x %"struct.icu_75::StandardPluralRanges::StandardPluralRangeTriple"], ptr %stackArray, i64 0, i64 0
  %ptr = getelementptr inbounds %"class.icu_75::MaybeStackArray.0", ptr %this1, i32 0, i32 0
  store ptr %arraydecay, ptr %ptr, align 8
  %capacity = getelementptr inbounds %"class.icu_75::MaybeStackArray.0", ptr %this1, i32 0, i32 1
  store i32 3, ptr %capacity, align 8
  %needToRelease = getelementptr inbounds %"class.icu_75::MaybeStackArray.0", ptr %this1, i32 0, i32 2
  store i8 0, ptr %needToRelease, align 4
  ret void
}

; Function Attrs: mustprogress nounwind uwtable
define linkonce_odr void @_ZN6icu_7516LocalPointerBaseINS_20StandardPluralRangesEED2Ev(ptr noundef nonnull align 8 dereferenceable(8) %this) unnamed_addr #0 comdat align 2 {
entry:
  %this.addr = alloca ptr, align 8
  store ptr %this, ptr %this.addr, align 8
  ret void
}

; Function Attrs: mustprogress nounwind uwtable
define internal noundef signext i8 @_ZL9U_SUCCESS10UErrorCode(i32 noundef %code) #0 {
entry:
  %code.addr = alloca i32, align 4
  store i32 %code, ptr %code.addr, align 4
  %0 = load i32, ptr %code.addr, align 4
  %cmp = icmp sle i32 %0, 0
  %conv = zext i1 %cmp to i8
  ret i8 %conv
}

; Function Attrs: mustprogress nounwind uwtable
define linkonce_odr void @_ZN6icu_7516LocalPointerBaseINS_20StandardPluralRangesEEC2EPS1_(ptr noundef nonnull align 8 dereferenceable(8) %this, ptr noundef %p) unnamed_addr #0 comdat align 2 {
entry:
  %this.addr = alloca ptr, align 8
  %p.addr = alloca ptr, align 8
  store ptr %this, ptr %this.addr, align 8
  store ptr %p, ptr %p.addr, align 8
  %this1 = load ptr, ptr %this.addr, align 8
  %ptr = getelementptr inbounds %"class.icu_75::LocalPointerBase", ptr %this1, i32 0, i32 0
  %0 = load ptr, ptr %p.addr, align 8
  store ptr %0, ptr %ptr, align 8
  ret void
}

; Function Attrs: mustprogress nounwind uwtable
define linkonce_odr void @_ZN6icu_7515MaybeStackArrayINS_20StandardPluralRanges25StandardPluralRangeTripleELi3EEC2EOS3_(ptr noundef nonnull align 8 dereferenceable(52) %this, ptr noundef nonnull align 8 dereferenceable(52) %src) unnamed_addr #0 comdat align 2 personality ptr @__gxx_personality_v0 {
entry:
  %this.addr = alloca ptr, align 8
  %src.addr = alloca ptr, align 8
  store ptr %this, ptr %this.addr, align 8
  store ptr %src, ptr %src.addr, align 8
  %this1 = load ptr, ptr %this.addr, align 8
  %ptr = getelementptr inbounds %"class.icu_75::MaybeStackArray.0", ptr %this1, i32 0, i32 0
  %0 = load ptr, ptr %src.addr, align 8
  %ptr2 = getelementptr inbounds %"class.icu_75::MaybeStackArray.0", ptr %0, i32 0, i32 0
  %1 = load ptr, ptr %ptr2, align 8
  store ptr %1, ptr %ptr, align 8
  %capacity = getelementptr inbounds %"class.icu_75::MaybeStackArray.0", ptr %this1, i32 0, i32 1
  %2 = load ptr, ptr %src.addr, align 8
  %capacity3 = getelementptr inbounds %"class.icu_75::MaybeStackArray.0", ptr %2, i32 0, i32 1
  %3 = load i32, ptr %capacity3, align 8
  store i32 %3, ptr %capacity, align 8
  %needToRelease = getelementptr inbounds %"class.icu_75::MaybeStackArray.0", ptr %this1, i32 0, i32 2
  %4 = load ptr, ptr %src.addr, align 8
  %needToRelease4 = getelementptr inbounds %"class.icu_75::MaybeStackArray.0", ptr %4, i32 0, i32 2
  %5 = load i8, ptr %needToRelease4, align 4
  store i8 %5, ptr %needToRelease, align 4
  %6 = load ptr, ptr %src.addr, align 8
  %ptr5 = getelementptr inbounds %"class.icu_75::MaybeStackArray.0", ptr %6, i32 0, i32 0
  %7 = load ptr, ptr %ptr5, align 8
  %8 = load ptr, ptr %src.addr, align 8
  %stackArray6 = getelementptr inbounds %"class.icu_75::MaybeStackArray.0", ptr %8, i32 0, i32 4
  %arraydecay = getelementptr inbounds [3 x %"struct.icu_75::StandardPluralRanges::StandardPluralRangeTriple"], ptr %stackArray6, i64 0, i64 0
  %cmp = icmp eq ptr %7, %arraydecay
  br i1 %cmp, label %if.then, label %if.else

if.then:                                          ; preds = %entry
  %stackArray7 = getelementptr inbounds %"class.icu_75::MaybeStackArray.0", ptr %this1, i32 0, i32 4
  %arraydecay8 = getelementptr inbounds [3 x %"struct.icu_75::StandardPluralRanges::StandardPluralRangeTriple"], ptr %stackArray7, i64 0, i64 0
  %ptr9 = getelementptr inbounds %"class.icu_75::MaybeStackArray.0", ptr %this1, i32 0, i32 0
  store ptr %arraydecay8, ptr %ptr9, align 8
  br label %do.body

do.body:                                          ; preds = %if.then
  %stackArray10 = getelementptr inbounds %"class.icu_75::MaybeStackArray.0", ptr %this1, i32 0, i32 4
  %arraydecay11 = getelementptr inbounds [3 x %"struct.icu_75::StandardPluralRanges::StandardPluralRangeTriple"], ptr %stackArray10, i64 0, i64 0
  %9 = load ptr, ptr %src.addr, align 8
  %stackArray12 = getelementptr inbounds %"class.icu_75::MaybeStackArray.0", ptr %9, i32 0, i32 4
  %arraydecay13 = getelementptr inbounds [3 x %"struct.icu_75::StandardPluralRanges::StandardPluralRangeTriple"], ptr %stackArray12, i64 0, i64 0
  %10 = load ptr, ptr %src.addr, align 8
  %capacity14 = getelementptr inbounds %"class.icu_75::MaybeStackArray.0", ptr %10, i32 0, i32 1
  %11 = load i32, ptr %capacity14, align 8
  %conv = sext i32 %11 to i64
  %mul = mul i64 12, %conv
  call void @llvm.memcpy.p0.p0.i64(ptr align 8 %arraydecay11, ptr align 8 %arraydecay13, i64 %mul, i1 false)
  br label %do.cond

do.cond:                                          ; preds = %do.body
  br label %do.end

do.end:                                           ; preds = %do.cond
  br label %if.end

if.else:                                          ; preds = %entry
  %12 = load ptr, ptr %src.addr, align 8
  invoke void @_ZN6icu_7515MaybeStackArrayINS_20StandardPluralRanges25StandardPluralRangeTripleELi3EE17resetToStackArrayEv(ptr noundef nonnull align 8 dereferenceable(52) %12)
          to label %invoke.cont unwind label %terminate.lpad

invoke.cont:                                      ; preds = %if.else
  br label %if.end

if.end:                                           ; preds = %invoke.cont, %do.end
  ret void

terminate.lpad:                                   ; preds = %if.else
  %13 = landingpad { ptr, i32 }
          catch ptr null
  %14 = extractvalue { ptr, i32 } %13, 0
  call void @__clang_call_terminate(ptr %14) #9
  unreachable
}

; Function Attrs: noreturn nounwind uwtable
define linkonce_odr hidden void @__clang_call_terminate(ptr noundef %0) #2 comdat {
  %2 = call ptr @__cxa_begin_catch(ptr %0) #7
  call void @_ZSt9terminatev() #9
  unreachable
}

; Function Attrs: mustprogress uwtable
define linkonce_odr void @_ZN6icu_7512LocalPointerINS_20StandardPluralRangesEEC2EPS1_R10UErrorCode(ptr noundef nonnull align 8 dereferenceable(8) %this, ptr noundef %p, ptr noundef nonnull align 4 dereferenceable(4) %errorCode) unnamed_addr #1 comdat align 2 personality ptr @__gxx_personality_v0 {
entry:
  %this.addr = alloca ptr, align 8
  %p.addr = alloca ptr, align 8
  %errorCode.addr = alloca ptr, align 8
  %exn.slot = alloca ptr, align 8
  %ehselector.slot = alloca i32, align 4
  store ptr %this, ptr %this.addr, align 8
  store ptr %p, ptr %p.addr, align 8
  store ptr %errorCode, ptr %errorCode.addr, align 8
  %this1 = load ptr, ptr %this.addr, align 8
  %0 = load ptr, ptr %p.addr, align 8
  call void @_ZN6icu_7516LocalPointerBaseINS_20StandardPluralRangesEEC2EPS1_(ptr noundef nonnull align 8 dereferenceable(8) %this1, ptr noundef %0)
  %1 = load ptr, ptr %p.addr, align 8
  %cmp = icmp eq ptr %1, null
  br i1 %cmp, label %land.lhs.true, label %if.end

land.lhs.true:                                    ; preds = %entry
  %2 = load ptr, ptr %errorCode.addr, align 8
  %3 = load i32, ptr %2, align 4
  %call = invoke noundef signext i8 @_ZL9U_SUCCESS10UErrorCode(i32 noundef %3)
          to label %invoke.cont unwind label %lpad

invoke.cont:                                      ; preds = %land.lhs.true
  %tobool = icmp ne i8 %call, 0
  br i1 %tobool, label %if.then, label %if.end

if.then:                                          ; preds = %invoke.cont
  %4 = load ptr, ptr %errorCode.addr, align 8
  store i32 7, ptr %4, align 4
  br label %if.end

lpad:                                             ; preds = %land.lhs.true
  %5 = landingpad { ptr, i32 }
          cleanup
  %6 = extractvalue { ptr, i32 } %5, 0
  store ptr %6, ptr %exn.slot, align 8
  %7 = extractvalue { ptr, i32 } %5, 1
  store i32 %7, ptr %ehselector.slot, align 4
  call void @_ZN6icu_7516LocalPointerBaseINS_20StandardPluralRangesEED2Ev(ptr noundef nonnull align 8 dereferenceable(8) %this1) #7
  br label %eh.resume

if.end:                                           ; preds = %if.then, %invoke.cont, %entry
  ret void

eh.resume:                                        ; preds = %lpad
  %exn = load ptr, ptr %exn.slot, align 8
  %sel = load i32, ptr %ehselector.slot, align 4
  %lpad.val = insertvalue { ptr, i32 } poison, ptr %exn, 0
  %lpad.val2 = insertvalue { ptr, i32 } %lpad.val, i32 %sel, 1
  resume { ptr, i32 } %lpad.val2
}

; Function Attrs: mustprogress nounwind uwtable
define linkonce_odr void @_ZN6icu_7520StandardPluralRangesC2EOS0_(ptr noundef nonnull align 8 dereferenceable(60) %this, ptr noundef nonnull align 8 dereferenceable(60) %0) unnamed_addr #0 comdat align 2 {
entry:
  %this.addr = alloca ptr, align 8
  %.addr = alloca ptr, align 8
  store ptr %this, ptr %this.addr, align 8
  store ptr %0, ptr %.addr, align 8
  %this1 = load ptr, ptr %this.addr, align 8
  %fTriples = getelementptr inbounds %"class.icu_75::StandardPluralRanges", ptr %this1, i32 0, i32 0
  %1 = load ptr, ptr %.addr, align 8
  %fTriples2 = getelementptr inbounds %"class.icu_75::StandardPluralRanges", ptr %1, i32 0, i32 0
  call void @_ZN6icu_7515MaybeStackArrayINS_20StandardPluralRanges25StandardPluralRangeTripleELi3EEC2EOS3_(ptr noundef nonnull align 8 dereferenceable(52) %fTriples, ptr noundef nonnull align 8 dereferenceable(52) %fTriples2) #7
  %fTriplesLen = getelementptr inbounds %"class.icu_75::StandardPluralRanges", ptr %this1, i32 0, i32 1
  %2 = load ptr, ptr %.addr, align 8
  %fTriplesLen3 = getelementptr inbounds %"class.icu_75::StandardPluralRanges", ptr %2, i32 0, i32 1
  %3 = load i32, ptr %fTriplesLen3, align 8
  store i32 %3, ptr %fTriplesLen, align 8
  ret void
}

; Function Attrs: mustprogress nounwind uwtable
define void @_ZNO6icu_7520StandardPluralRanges9toPointerER10UErrorCode(ptr noalias sret(%"class.icu_75::LocalPointer") align 8 %agg.result, ptr noundef nonnull align 8 dereferenceable(60) %this, ptr noundef nonnull align 4 dereferenceable(4) %status) #0 align 2 personality ptr @__gxx_personality_v0 {
entry:
  %result.ptr = alloca ptr, align 8
  %this.addr = alloca ptr, align 8
  %status.addr = alloca ptr, align 8
  %cleanup.cond = alloca i1, align 1
  store ptr %agg.result, ptr %result.ptr, align 8
  store ptr %this, ptr %this.addr, align 8
  store ptr %status, ptr %status.addr, align 8
  %this1 = load ptr, ptr %this.addr, align 8
  %call = call noundef ptr @_ZN6icu_757UMemorynwEm(i64 noundef 64) #7
  %new.isnull = icmp eq ptr %call, null
  store i1 false, ptr %cleanup.cond, align 1
  br i1 %new.isnull, label %new.cont, label %new.notnull

new.notnull:                                      ; preds = %entry
  store i1 true, ptr %cleanup.cond, align 1
  call void @_ZN6icu_7520StandardPluralRangesC2EOS0_(ptr noundef nonnull align 8 dereferenceable(60) %call, ptr noundef nonnull align 8 dereferenceable(60) %this1) #7
  br label %new.cont

new.cont:                                         ; preds = %new.notnull, %entry
  %0 = phi ptr [ %call, %new.notnull ], [ null, %entry ]
  %1 = load ptr, ptr %status.addr, align 8
  invoke void @_ZN6icu_7512LocalPointerINS_20StandardPluralRangesEEC2EPS1_R10UErrorCode(ptr noundef nonnull align 8 dereferenceable(8) %agg.result, ptr noundef %0, ptr noundef nonnull align 4 dereferenceable(4) %1)
          to label %invoke.cont unwind label %terminate.lpad

invoke.cont:                                      ; preds = %new.cont
  ret void

terminate.lpad:                                   ; preds = %new.cont
  %2 = landingpad { ptr, i32 }
          catch ptr null
  %3 = extractvalue { ptr, i32 } %2, 0
  call void @__clang_call_terminate(ptr %3) #9
  unreachable
}