; Function Attrs: mustprogress nounwind uwtable
define void @_ZNO6icu_7520StandardPluralRanges9toPointerER10UErrorCode(ptr noalias nocapture writeonly sret(%"class.icu_75::LocalPointer") align 8 %agg.result, ptr noundef nonnull align 8 dereferenceable(60) %this, ptr nocapture noundef nonnull align 4 dereferenceable(4) %status) local_unnamed_addr #0 align 2 personality ptr @__gxx_personality_v0 {
entry:
  %call = tail call noundef ptr @_ZN6icu_757UMemorynwEm(i64 noundef 64) #11
  %new.isnull = icmp eq ptr %call, null
  br i1 %new.isnull, label %new.cont, label %new.notnull

new.notnull:                                      ; preds = %entry
  %0 = load ptr, ptr %this, align 8
  store ptr %0, ptr %call, align 8
  %capacity.i.i = getelementptr inbounds i8, ptr %call, i64 8
  %capacity3.i.i = getelementptr inbounds i8, ptr %this, i64 8
  %1 = load i32, ptr %capacity3.i.i, align 8
  store i32 %1, ptr %capacity.i.i, align 8
  %needToRelease.i.i = getelementptr inbounds i8, ptr %call, i64 12
  %needToRelease4.i.i = getelementptr inbounds i8, ptr %this, i64 12
  %2 = load i8, ptr %needToRelease4.i.i, align 4
  store i8 %2, ptr %needToRelease.i.i, align 4
  %3 = load ptr, ptr %this, align 8
  %stackArray6.i.i = getelementptr inbounds i8, ptr %this, i64 16
  %cmp.i.i = icmp eq ptr %3, %stackArray6.i.i
  br i1 %cmp.i.i, label %if.then.i.i, label %if.else.i.i

if.then.i.i:                                      ; preds = %new.notnull
  %stackArray7.i.i = getelementptr inbounds i8, ptr %call, i64 16
  store ptr %stackArray7.i.i, ptr %call, align 8
  %4 = load i32, ptr %capacity3.i.i, align 8
  %conv.i.i = sext i32 %4 to i64
  %mul.i.i = mul nsw i64 %conv.i.i, 12
  tail call void @llvm.memcpy.p0.p0.i64(ptr nonnull align 8 %stackArray7.i.i, ptr nonnull align 8 %3, i64 %mul.i.i, i1 false)
  br label %new.cont.thread

if.else.i.i:                                      ; preds = %new.notnull
  store ptr %stackArray6.i.i, ptr %this, align 8
  store i32 3, ptr %capacity3.i.i, align 8
  store i8 0, ptr %needToRelease4.i.i, align 4
  br label %new.cont.thread

new.cont.thread:                                  ; preds = %if.else.i.i, %if.then.i.i
  %fTriplesLen.i = getelementptr inbounds i8, ptr %call, i64 56
  %fTriplesLen3.i = getelementptr inbounds i8, ptr %this, i64 56
  %5 = load i32, ptr %fTriplesLen3.i, align 8
  store i32 %5, ptr %fTriplesLen.i, align 8
  store ptr %call, ptr %agg.result, align 8
  br label %invoke.cont

new.cont:                                         ; preds = %entry
  store ptr null, ptr %agg.result, align 8
  %6 = load i32, ptr %status, align 4
  %cmp.i.i1 = icmp sgt i32 %6, 0
  br i1 %cmp.i.i1, label %invoke.cont, label %if.then.i

if.then.i:                                        ; preds = %new.cont
  store i32 7, ptr %status, align 4
  br label %invoke.cont

invoke.cont:                                      ; preds = %if.then.i, %new.cont, %new.cont.thread
  ret void
}